; Function Attrs: nounwind uwtable
define internal fastcc noundef zeroext i1 @progress_calc(ptr noundef captures(none) initializes((2616, 2624), (2664, 2672), (2720, 2728)) %0, i64 %1, i32 %2) unnamed_addr #0 {
  %4 = getelementptr inbounds nuw i8, ptr %0, i64 2592
  %5 = getelementptr inbounds nuw i8, ptr %0, i64 2792
  %6 = load i64, ptr %5, align 8
  %7 = getelementptr inbounds nuw i8, ptr %0, i64 2800
  %8 = load i32, ptr %7, align 8
  %9 = tail call i64 @Curl_timediff_us(i64 %1, i32 %2, i64 %6, i32 %8) #8
  %10 = getelementptr inbounds nuw i8, ptr %0, i64 2720
  store i64 %9, ptr %10, align 8, !tbaa !87
  %11 = getelementptr inbounds nuw i8, ptr %0, i64 2656
  %12 = load i64, ptr %11, align 8, !tbaa !94
  %13 = icmp slt i64 %9, 1
  br i1 %13, label %24, label %14

14:                                               ; preds = %3
  %15 = icmp slt i64 %12, 9223372036854
  br i1 %15, label %16, label %19

16:                                               ; preds = %14
  %17 = mul nsw i64 %12, 1000000
  %18 = sdiv i64 %17, %9
  br label %30

19:                                               ; preds = %14
  %20 = icmp samesign ugt i64 %9, 999999
  br i1 %20, label %21, label %30

21:                                               ; preds = %19
  %22 = udiv i64 %9, 1000000
  %23 = udiv i64 %12, %22
  br label %30

24:                                               ; preds = %3
  %25 = mul nsw i64 %12, 1000000
  %26 = getelementptr inbounds nuw i8, ptr %0, i64 2664
  store i64 %25, ptr %26, align 8, !tbaa !96
  %27 = getelementptr inbounds nuw i8, ptr %0, i64 2608
  %28 = load i64, ptr %27, align 8, !tbaa !95
  %29 = mul nsw i64 %28, 1000000
  br label %trspeed.exit51

30:                                               ; preds = %16, %19, %21
  %.0.i.ph = phi i64 [ 9223372036854775807, %19 ], [ %23, %21 ], [ %18, %16 ]
  %31 = getelementptr inbounds nuw i8, ptr %0, i64 2664
  store i64 %.0.i.ph, ptr %31, align 8, !tbaa !96
  %32 = getelementptr inbounds nuw i8, ptr %0, i64 2608
  %33 = load i64, ptr %32, align 8, !tbaa !95
  %34 = icmp slt i64 %33, 9223372036854
  br i1 %34, label %35, label %38

35:                                               ; preds = %30
  %36 = mul nsw i64 %33, 1000000
  %37 = sdiv i64 %36, %9
  br label %trspeed.exit51

38:                                               ; preds = %30
  %39 = icmp samesign ugt i64 %9, 999999
  br i1 %39, label %40, label %trspeed.exit51

40:                                               ; preds = %38
  %41 = udiv i64 %9, 1000000
  %42 = udiv i64 %33, %41
  br label %trspeed.exit51

trspeed.exit51:                                   ; preds = %24, %35, %38, %40
  %43 = phi i64 [ %28, %24 ], [ %33, %35 ], [ %33, %40 ], [ %33, %38 ]
  %.0.i53 = phi i64 [ %25, %24 ], [ %.0.i.ph, %35 ], [ %.0.i.ph, %40 ], [ %.0.i.ph, %38 ]
  %.0.i50 = phi i64 [ %29, %24 ], [ %37, %35 ], [ %42, %40 ], [ 9223372036854775807, %38 ]
  %44 = getelementptr inbounds nuw i8, ptr %0, i64 2616
  store i64 %.0.i50, ptr %44, align 8, !tbaa !97
  %45 = load i64, ptr %4, align 8, !tbaa !109
  %.not = icmp ne i64 %45, %1
  br i1 %.not, label %46, label %84

46:                                               ; preds = %trspeed.exit51
  %47 = getelementptr inbounds nuw i8, ptr %0, i64 3000
  %48 = load i32, ptr %47, align 8, !tbaa !110
  %49 = srem i32 %48, 6
  store i64 %1, ptr %4, align 8, !tbaa !109
  %50 = add nsw i64 %43, %12
  %51 = getelementptr inbounds nuw i8, ptr %0, i64 2856
  %52 = sext i32 %49 to i64
  %53 = getelementptr inbounds [6 x i64], ptr %51, i64 0, i64 %52
  store i64 %50, ptr %53, align 8, !tbaa !93
  %54 = getelementptr inbounds nuw i8, ptr %0, i64 2904
  %55 = getelementptr inbounds [6 x %struct.curltime], ptr %54, i64 0, i64 %52
  store i64 %1, ptr %55, align 8, !tbaa !93
  %.sroa.6.0..sroa_idx = getelementptr inbounds nuw i8, ptr %55, i64 8
  store i32 %2, ptr %.sroa.6.0..sroa_idx, align 8, !tbaa !99
  %56 = add nsw i32 %48, 1
  store i32 %56, ptr %47, align 8, !tbaa !110
  %57 = icmp eq i32 %48, 0
  br i1 %57, label %81, label %58

58:                                               ; preds = %46
  %59 = icmp sgt i32 %48, 4
  %60 = urem i32 %56, 6
  %narrow = select i1 %59, i32 %60, i32 0
  %61 = zext nneg i32 %narrow to i64
  %62 = getelementptr inbounds nuw [6 x %struct.curltime], ptr %54, i64 0, i64 %61
  %63 = load i64, ptr %62, align 8
  %64 = getelementptr inbounds nuw i8, ptr %62, i64 8
  %65 = load i32, ptr %64, align 8
  %66 = tail call i64 @Curl_timediff(i64 %1, i32 %2, i64 %63, i32 %65) #8
  %spec.store.select = tail call i64 @llvm.umax.i64(i64 %66, i64 1)
  %67 = load i64, ptr %53, align 8, !tbaa !93
  %68 = getelementptr inbounds nuw [6 x i64], ptr %51, i64 0, i64 %61
  %69 = load i64, ptr %68, align 8, !tbaa !93
  %70 = sub nsw i64 %67, %69
  %71 = icmp sgt i64 %70, 4294967
  br i1 %71, label %72, label %78

72:                                               ; preds = %58
  %73 = uitofp nneg i64 %70 to double
  %74 = sitofp i64 %spec.store.select to double
  %75 = fdiv double %74, 1.000000e+03
  %76 = fdiv double %73, %75
  %77 = fptosi double %76 to i64
  br label %.sink.split

78:                                               ; preds = %58
  %79 = mul nsw i64 %70, 1000
  %80 = sdiv i64 %79, %spec.store.select
  br label %.sink.split

81:                                               ; preds = %46
  %82 = add nsw i64 %.0.i50, %.0.i53
  br label %.sink.split

.sink.split:                                      ; preds = %72, %78, %81
  %.sink = phi i64 [ %82, %81 ], [ %80, %78 ], [ %77, %72 ]
  %83 = getelementptr inbounds nuw i8, ptr %0, i64 2696
  store i64 %.sink, ptr %83, align 8, !tbaa !98
  br label %84

84:                                               ; preds = %.sink.split, %trspeed.exit51
  ret i1 %.not
}